target datalayout = "e-m:e-p270:32:32-p271:32:32-p272:64:64-i64:64-i128:128-f80:128-n8:16:32:64-S128"
target triple = "x86_64-pc-linux-gnu"

%struct.Gli_Man_t_ = type { ptr, ptr, ptr, ptr, ptr, i32, i32, i32, i32, i32, ptr, ptr }
%struct.Vec_Int_t_ = type { i32, i32, ptr }
%struct.Gli_Obj_t_ = type { i32, i32, ptr, i32, %union.anon, %union.anon.0, [0 x i32] }
%union.anon = type { i32 }
%union.anon.0 = type { i32 }

; Function Attrs: inlinehint nounwind uwtable
define internal i32 @Abc_InfoHasBit(ptr noundef %0, i32 noundef %1) #3 {
  %3 = alloca ptr, align 8
  %4 = alloca i32, align 4
  store ptr %0, ptr %3, align 8, !tbaa !60
  store i32 %1, ptr %4, align 4, !tbaa !3
  %5 = load ptr, ptr %3, align 8, !tbaa !60
  %6 = load i32, ptr %4, align 4, !tbaa !3
  %7 = ashr i32 %6, 5
  %8 = sext i32 %7 to i64
  %9 = getelementptr inbounds i32, ptr %5, i64 %8
  %10 = load i32, ptr %9, align 4, !tbaa !3
  %11 = load i32, ptr %4, align 4, !tbaa !3
  %12 = and i32 %11, 31
  %13 = shl i32 1, %12
  %14 = and i32 %10, %13
  %15 = icmp ugt i32 %14, 0
  %16 = zext i1 %15 to i32
  ret i32 %16
}

; Function Attrs: inlinehint nounwind uwtable
define internal ptr @Gli_ObjFanin(ptr noundef %0, i32 noundef %1) #3 {
  %3 = alloca ptr, align 8
  %4 = alloca i32, align 4
  store ptr %0, ptr %3, align 8, !tbaa !27
  store i32 %1, ptr %4, align 4, !tbaa !3
  %5 = load ptr, ptr %3, align 8, !tbaa !27
  %6 = load ptr, ptr %3, align 8, !tbaa !27
  %7 = getelementptr inbounds nuw %struct.Gli_Obj_t_, ptr %6, i32 0, i32 6
  %8 = load i32, ptr %4, align 4, !tbaa !3
  %9 = sext i32 %8 to i64
  %10 = getelementptr inbounds [0 x i32], ptr %7, i64 0, i64 %9
  %11 = load i32, ptr %10, align 4, !tbaa !3
  %12 = sext i32 %11 to i64
  %13 = sub i64 0, %12
  %14 = getelementptr inbounds i32, ptr %5, i64 %13
  ret ptr %14
}

; Function Attrs: inlinehint nounwind uwtable
define internal i32 @Gli_ObjSize(ptr noundef %0) #3 {
  %2 = alloca ptr, align 8
  store ptr %0, ptr %2, align 8, !tbaa !27
  %3 = load ptr, ptr %2, align 8, !tbaa !27
  %4 = load i32, ptr %3, align 8
  %5 = lshr i32 %4, 4
  %6 = and i32 %5, 7
  %7 = zext i32 %6 to i64
  %8 = add i64 8, %7
  %9 = load ptr, ptr %2, align 8, !tbaa !27
  %10 = load i32, ptr %9, align 8
  %11 = lshr i32 %10, 7
  %12 = zext i32 %11 to i64
  %13 = add i64 %8, %12
  %14 = trunc i64 %13 to i32
  ret i32 %14
}

; Function Attrs: inlinehint nounwind uwtable
define internal i32 @Gli_NodeComputeValue(ptr noundef %0) #3 {
  %2 = alloca ptr, align 8
  %3 = alloca i32, align 4
  %4 = alloca i32, align 4
  store ptr %0, ptr %2, align 8, !tbaa !27
  call void @llvm.lifetime.start.p0(i64 4, ptr %3) #10
  call void @llvm.lifetime.start.p0(i64 4, ptr %4) #10
  store i32 0, ptr %4, align 4, !tbaa !3
  store i32 0, ptr %3, align 4, !tbaa !3
  br label %5

5:                                                ; preds = %23, %1
  %6 = load i32, ptr %3, align 4, !tbaa !3
  %7 = load ptr, ptr %2, align 8, !tbaa !27
  %8 = load i32, ptr %7, align 8
  %9 = lshr i32 %8, 4
  %10 = and i32 %9, 7
  %11 = icmp slt i32 %6, %10
  br i1 %11, label %12, label %26

12:                                               ; preds = %5
  %13 = load ptr, ptr %2, align 8, !tbaa !27
  %14 = load i32, ptr %3, align 4, !tbaa !3
  %15 = call ptr @Gli_ObjFanin(ptr noundef %13, i32 noundef %14)
  %16 = load i32, ptr %15, align 8
  %17 = lshr i32 %16, 1
  %18 = and i32 %17, 1
  %19 = load i32, ptr %3, align 4, !tbaa !3
  %20 = shl i32 %18, %19
  %21 = load i32, ptr %4, align 4, !tbaa !3
  %22 = or i32 %21, %20
  store i32 %22, ptr %4, align 4, !tbaa !3
  br label %23

23:                                               ; preds = %12
  %24 = load i32, ptr %3, align 4, !tbaa !3
  %25 = add nsw i32 %24, 1
  store i32 %25, ptr %3, align 4, !tbaa !3
  br label %5, !llvm.loop !43

26:                                               ; preds = %5
  %27 = load ptr, ptr %2, align 8, !tbaa !27
  %28 = getelementptr inbounds nuw %struct.Gli_Obj_t_, ptr %27, i32 0, i32 2
  %29 = load ptr, ptr %28, align 8, !tbaa !42
  %30 = load i32, ptr %4, align 4, !tbaa !3
  %31 = call i32 @Abc_InfoHasBit(ptr noundef %29, i32 noundef %30)
  call void @llvm.lifetime.end.p0(i64 4, ptr %4) #10
  call void @llvm.lifetime.end.p0(i64 4, ptr %3) #10
  ret i32 %31
}

; Function Attrs: nounwind uwtable
define void @Gli_ObjAddFanin(ptr noundef %0, ptr noundef %1) #0 {
  %3 = alloca ptr, align 8
  %4 = alloca ptr, align 8
  store ptr %0, ptr %3, align 8, !tbaa !27
  store ptr %1, ptr %4, align 8, !tbaa !27
  %5 = load ptr, ptr %3, align 8, !tbaa !27
  %6 = getelementptr inbounds nuw %struct.Gli_Obj_t_, ptr %5, i32 0, i32 1
  %7 = load i32, ptr %6, align 4, !tbaa !29
  %8 = load ptr, ptr %4, align 8, !tbaa !27
  %9 = getelementptr inbounds nuw %struct.Gli_Obj_t_, ptr %8, i32 0, i32 1
  %10 = load i32, ptr %9, align 4, !tbaa !29
  %11 = sub i32 %7, %10
  %12 = load ptr, ptr %3, align 8, !tbaa !27
  %13 = getelementptr inbounds nuw %struct.Gli_Obj_t_, ptr %12, i32 0, i32 6
  %14 = load ptr, ptr %3, align 8, !tbaa !27
  %15 = getelementptr inbounds nuw %struct.Gli_Obj_t_, ptr %14, i32 0, i32 4
  %16 = load i32, ptr %15, align 4, !tbaa !36
  %17 = add nsw i32 %16, 1
  store i32 %17, ptr %15, align 4, !tbaa !36
  %18 = sext i32 %16 to i64
  %19 = getelementptr inbounds [0 x i32], ptr %13, i64 0, i64 %18
  store i32 %11, ptr %19, align 4, !tbaa !3
  %20 = load ptr, ptr %4, align 8, !tbaa !27
  %21 = getelementptr inbounds nuw %struct.Gli_Obj_t_, ptr %20, i32 0, i32 6
  %22 = load ptr, ptr %4, align 8, !tbaa !27
  %23 = load i32, ptr %22, align 8
  %24 = lshr i32 %23, 4
  %25 = and i32 %24, 7
  %26 = load ptr, ptr %4, align 8, !tbaa !27
  %27 = getelementptr inbounds nuw %struct.Gli_Obj_t_, ptr %26, i32 0, i32 5
  %28 = load i32, ptr %27, align 8, !tbaa !36
  %29 = add nsw i32 %28, 1
  store i32 %29, ptr %27, align 8, !tbaa !36
  %30 = add nsw i32 %25, %28
  %31 = sext i32 %30 to i64
  %32 = getelementptr inbounds [0 x i32], ptr %21, i64 0, i64 %31
  store i32 %11, ptr %32, align 4, !tbaa !3
  ret void
}

; Function Attrs: inlinehint nounwind uwtable
define internal ptr @Gli_ManObj(ptr noundef %0, i32 noundef %1) #3 {
  %3 = alloca ptr, align 8
  %4 = alloca i32, align 4
  store ptr %0, ptr %3, align 8, !tbaa !7
  store i32 %1, ptr %4, align 4, !tbaa !3
  %5 = load ptr, ptr %3, align 8, !tbaa !7
  %6 = getelementptr inbounds nuw %struct.Gli_Man_t_, ptr %5, i32 0, i32 10
  %7 = load ptr, ptr %6, align 8, !tbaa !20
  %8 = load i32, ptr %4, align 4, !tbaa !3
  %9 = sext i32 %8 to i64
  %10 = getelementptr inbounds i32, ptr %7, i64 %9
  ret ptr %10
}

; Function Attrs: inlinehint nounwind uwtable
define internal i32 @Vec_IntEntry(ptr noundef %0, i32 noundef %1) #3 {
  %3 = alloca ptr, align 8
  %4 = alloca i32, align 4
  store ptr %0, ptr %3, align 8, !tbaa !21
  store i32 %1, ptr %4, align 4, !tbaa !3
  %5 = load ptr, ptr %3, align 8, !tbaa !21
  %6 = getelementptr inbounds nuw %struct.Vec_Int_t_, ptr %5, i32 0, i32 2
  %7 = load ptr, ptr %6, align 8, !tbaa !25
  %8 = load i32, ptr %4, align 4, !tbaa !3
  %9 = sext i32 %8 to i64
  %10 = getelementptr inbounds i32, ptr %7, i64 %9
  %11 = load i32, ptr %10, align 4, !tbaa !3
  ret i32 %11
}

; Function Attrs: nounwind uwtable
define ptr @Gli_ObjAlloc(ptr noundef %0, i32 noundef %1, i32 noundef %2) #0 {
  %4 = alloca ptr, align 8
  %5 = alloca i32, align 4
  %6 = alloca i32, align 4
  %7 = alloca ptr, align 8
  store ptr %0, ptr %4, align 8, !tbaa !7
  store i32 %1, ptr %5, align 4, !tbaa !3
  store i32 %2, ptr %6, align 4, !tbaa !3
  call void @llvm.lifetime.start.p0(i64 8, ptr %7) #10
  %8 = load ptr, ptr %4, align 8, !tbaa !7
  %9 = load ptr, ptr %4, align 8, !tbaa !7
  %10 = getelementptr inbounds nuw %struct.Gli_Man_t_, ptr %9, i32 0, i32 8
  %11 = load i32, ptr %10, align 4, !tbaa !38
  %12 = call ptr @Gli_ManObj(ptr noundef %8, i32 noundef %11)
  store ptr %12, ptr %7, align 8, !tbaa !27
  %13 = load ptr, ptr %4, align 8, !tbaa !7
  %14 = getelementptr inbounds nuw %struct.Gli_Man_t_, ptr %13, i32 0, i32 8
  %15 = load i32, ptr %14, align 4, !tbaa !38
  %16 = load ptr, ptr %7, align 8, !tbaa !27
  %17 = getelementptr inbounds nuw %struct.Gli_Obj_t_, ptr %16, i32 0, i32 1
  store i32 %15, ptr %17, align 4, !tbaa !29
  %18 = load i32, ptr %5, align 4, !tbaa !3
  %19 = load ptr, ptr %7, align 8, !tbaa !27
  %20 = load i32, ptr %19, align 8
  %21 = and i32 %18, 7
  %22 = shl i32 %21, 4
  %23 = and i32 %20, -113
  %24 = or i32 %23, %22
  store i32 %24, ptr %19, align 8
  %25 = load i32, ptr %6, align 4, !tbaa !3
  %26 = load ptr, ptr %7, align 8, !tbaa !27
  %27 = load i32, ptr %26, align 8
  %28 = and i32 %25, 33554431
  %29 = shl i32 %28, 7
  %30 = and i32 %27, 127
  %31 = or i32 %30, %29
  store i32 %31, ptr %26, align 8
  %32 = load ptr, ptr %7, align 8, !tbaa !27
  %33 = call i32 @Gli_ObjSize(ptr noundef %32)
  %34 = load ptr, ptr %4, align 8, !tbaa !7
  %35 = getelementptr inbounds nuw %struct.Gli_Man_t_, ptr %34, i32 0, i32 8
  %36 = load i32, ptr %35, align 4, !tbaa !38
  %37 = add nsw i32 %36, %33
  store i32 %37, ptr %35, align 4, !tbaa !38
  %38 = load ptr, ptr %4, align 8, !tbaa !7
  %39 = getelementptr inbounds nuw %struct.Gli_Man_t_, ptr %38, i32 0, i32 5
  %40 = load i32, ptr %39, align 8, !tbaa !39
  %41 = add nsw i32 %40, 1
  store i32 %41, ptr %39, align 8, !tbaa !39
  %42 = load ptr, ptr %7, align 8, !tbaa !27
  call void @llvm.lifetime.end.p0(i64 8, ptr %7) #10
  ret ptr %42
}

; Function Attrs: inlinehint nounwind uwtable
define internal i32 @Vec_IntSize(ptr noundef %0) #3 {
  %2 = alloca ptr, align 8
  store ptr %0, ptr %2, align 8, !tbaa !21
  %3 = load ptr, ptr %2, align 8, !tbaa !21
  %4 = getelementptr inbounds nuw %struct.Vec_Int_t_, ptr %3, i32 0, i32 1
  %5 = load i32, ptr %4, align 4, !tbaa !22
  ret i32 %5
}

; Function Attrs: nounwind uwtable
define i32 @Gli_ManCreateNode(ptr noundef %0, ptr noundef %1, i32 noundef %2, ptr noundef %3) #0 {
  %5 = alloca ptr, align 8
  %6 = alloca ptr, align 8
  %7 = alloca i32, align 4
  %8 = alloca ptr, align 8
  %9 = alloca ptr, align 8
  %10 = alloca ptr, align 8
  %11 = alloca i32, align 4
  store ptr %0, ptr %5, align 8, !tbaa !7
  store ptr %1, ptr %6, align 8, !tbaa !21
  store i32 %2, ptr %7, align 4, !tbaa !3
  store ptr %3, ptr %8, align 8, !tbaa !40
  call void @llvm.lifetime.start.p0(i64 8, ptr %9) #10
  call void @llvm.lifetime.start.p0(i64 8, ptr %10) #10
  call void @llvm.lifetime.start.p0(i64 4, ptr %11) #10
  %12 = load ptr, ptr %5, align 8, !tbaa !7
  %13 = load ptr, ptr %6, align 8, !tbaa !21
  %14 = call i32 @Vec_IntSize(ptr noundef %13)
  %15 = load i32, ptr %7, align 4, !tbaa !3
  %16 = call ptr @Gli_ObjAlloc(ptr noundef %12, i32 noundef %14, i32 noundef %15)
  store ptr %16, ptr %9, align 8, !tbaa !27
  store i32 0, ptr %11, align 4, !tbaa !3
  br label %17

17:                                               ; preds = %34, %4
  %18 = load i32, ptr %11, align 4, !tbaa !3
  %19 = load ptr, ptr %6, align 8, !tbaa !21
  %20 = call i32 @Vec_IntSize(ptr noundef %19)
  %21 = icmp slt i32 %18, %20
  br i1 %21, label %22, label %29

22:                                               ; preds = %17
  %23 = load ptr, ptr %5, align 8, !tbaa !7
  %24 = load ptr, ptr %6, align 8, !tbaa !21
  %25 = load i32, ptr %11, align 4, !tbaa !3
  %26 = call i32 @Vec_IntEntry(ptr noundef %24, i32 noundef %25)
  %27 = call ptr @Gli_ManObj(ptr noundef %23, i32 noundef %26)
  store ptr %27, ptr %10, align 8, !tbaa !27
  %28 = icmp ne ptr %27, null
  br label %29

29:                                               ; preds = %22, %17
  %30 = phi i1 [ false, %17 ], [ %28, %22 ]
  br i1 %30, label %31, label %37

31:                                               ; preds = %29
  %32 = load ptr, ptr %9, align 8, !tbaa !27
  %33 = load ptr, ptr %10, align 8, !tbaa !27
  call void @Gli_ObjAddFanin(ptr noundef %32, ptr noundef %33)
  br label %34

34:                                               ; preds = %31
  %35 = load i32, ptr %11, align 4, !tbaa !3
  %36 = add nsw i32 %35, 1
  store i32 %36, ptr %11, align 4, !tbaa !3
  br label %17, !llvm.loop !41

37:                                               ; preds = %29
  %38 = load ptr, ptr %8, align 8, !tbaa !40
  %39 = load ptr, ptr %9, align 8, !tbaa !27
  %40 = getelementptr inbounds nuw %struct.Gli_Obj_t_, ptr %39, i32 0, i32 2
  store ptr %38, ptr %40, align 8, !tbaa !42
  %41 = load ptr, ptr %9, align 8, !tbaa !27
  %42 = call i32 @Gli_NodeComputeValue(ptr noundef %41)
  %43 = load ptr, ptr %9, align 8, !tbaa !27
  %44 = load i32, ptr %43, align 8
  %45 = and i32 %42, 1
  %46 = shl i32 %45, 2
  %47 = and i32 %44, -5
  %48 = or i32 %47, %46
  store i32 %48, ptr %43, align 8
  %49 = load ptr, ptr %9, align 8, !tbaa !27
  %50 = load i32, ptr %49, align 8
  %51 = and i32 %45, 1
  %52 = shl i32 %51, 1
  %53 = and i32 %50, -3
  %54 = or i32 %53, %52
  store i32 %54, ptr %49, align 8
  %55 = load ptr, ptr %9, align 8, !tbaa !27
  %56 = getelementptr inbounds nuw %struct.Gli_Obj_t_, ptr %55, i32 0, i32 1
  %57 = load i32, ptr %56, align 4, !tbaa !29
  call void @llvm.lifetime.end.p0(i64 4, ptr %11) #10
  call void @llvm.lifetime.end.p0(i64 8, ptr %10) #10
  call void @llvm.lifetime.end.p0(i64 8, ptr %9) #10
  ret i32 %57
}