; Function Attrs: nofree norecurse nosync nounwind memory(readwrite, inaccessiblemem: none) uwtable
define i32 @Gli_ManCreateNode(ptr noundef captures(none) %0, ptr noundef readonly captures(none) %1, i32 noundef %2, ptr noundef %3) local_unnamed_addr #7 {
  %5 = getelementptr i8, ptr %1, i64 4
  %.val17 = load i32, ptr %5, align 4, !tbaa !11
  %6 = getelementptr inbounds nuw i8, ptr %0, i64 52
  %7 = load i32, ptr %6, align 4, !tbaa !33
  %8 = getelementptr i8, ptr %0, i64 64
  %.val.i = load ptr, ptr %8, align 8, !tbaa !21
  %9 = sext i32 %7 to i64
  %10 = getelementptr inbounds i32, ptr %.val.i, i64 %9
  %11 = getelementptr inbounds nuw i8, ptr %10, i64 4
  store i32 %7, ptr %11, align 4, !tbaa !23
  %12 = load i32, ptr %10, align 8
  %13 = shl i32 %.val17, 4
  %14 = and i32 %12, 15
  %15 = shl i32 %2, 7
  %.masked.i = and i32 %13, 112
  %16 = or disjoint i32 %.masked.i, %14
  %17 = or disjoint i32 %16, %15
  store i32 %17, ptr %10, align 8
  %18 = and i32 %.val17, 7
  %19 = and i32 %2, 33554431
  %20 = load i32, ptr %6, align 4, !tbaa !33
  %21 = add nuw nsw i32 %19, 8
  %narrow.i.i = add nuw nsw i32 %21, %18
  %22 = add nsw i32 %narrow.i.i, %20
  store i32 %22, ptr %6, align 4, !tbaa !33
  %23 = getelementptr inbounds nuw i8, ptr %0, i64 40
  %24 = load i32, ptr %23, align 8, !tbaa !34
  %25 = add nsw i32 %24, 1
  store i32 %25, ptr %23, align 8, !tbaa !34
  %.val1820 = load i32, ptr %5, align 4, !tbaa !11
  %26 = icmp sgt i32 %.val1820, 0
  br i1 %26, label %.lr.ph, label %.critedge

.lr.ph:                                           ; preds = %4
  %27 = getelementptr i8, ptr %1, i64 8
  %28 = getelementptr inbounds nuw i8, ptr %10, i64 28
  %29 = getelementptr inbounds nuw i8, ptr %10, i64 20
  br label %30

30:                                               ; preds = %.lr.ph, %31
  %indvars.iv = phi i64 [ 0, %.lr.ph ], [ %indvars.iv.next, %31 ]
  %.val = load ptr, ptr %8, align 8, !tbaa !21
  %.not = icmp eq ptr %.val, null
  br i1 %.not, label %.critedge, label %31

31:                                               ; preds = %30
  %.val19 = load ptr, ptr %27, align 8, !tbaa !14
  %32 = getelementptr inbounds nuw i32, ptr %.val19, i64 %indvars.iv
  %33 = load i32, ptr %32, align 4, !tbaa !26
  %34 = sext i32 %33 to i64
  %35 = getelementptr inbounds i32, ptr %.val, i64 %34
  %36 = load i32, ptr %11, align 4, !tbaa !23
  %37 = getelementptr inbounds nuw i8, ptr %35, i64 4
  %38 = load i32, ptr %37, align 4, !tbaa !23
  %39 = sub i32 %36, %38
  %40 = load i32, ptr %29, align 4, !tbaa !31
  %41 = add nsw i32 %40, 1
  store i32 %41, ptr %29, align 4, !tbaa !31
  %42 = sext i32 %40 to i64
  %43 = getelementptr inbounds [0 x i32], ptr %28, i64 0, i64 %42
  store i32 %39, ptr %43, align 4, !tbaa !26
  %44 = getelementptr inbounds nuw i8, ptr %35, i64 28
  %45 = load i32, ptr %35, align 8
  %46 = lshr i32 %45, 4
  %47 = and i32 %46, 7
  %48 = getelementptr inbounds nuw i8, ptr %35, i64 24
  %49 = load i32, ptr %48, align 8, !tbaa !31
  %50 = add nsw i32 %49, 1
  store i32 %50, ptr %48, align 8, !tbaa !31
  %51 = add nsw i32 %47, %49
  %52 = sext i32 %51 to i64
  %53 = getelementptr inbounds [0 x i32], ptr %44, i64 0, i64 %52
  store i32 %39, ptr %53, align 4, !tbaa !26
  %indvars.iv.next = add nuw nsw i64 %indvars.iv, 1
  %.val18 = load i32, ptr %5, align 4, !tbaa !11
  %54 = sext i32 %.val18 to i64
  %55 = icmp slt i64 %indvars.iv.next, %54
  br i1 %55, label %30, label %.critedge, !llvm.loop !35

.critedge:                                        ; preds = %30, %31, %4
  %56 = getelementptr inbounds nuw i8, ptr %10, i64 8
  store ptr %3, ptr %56, align 8, !tbaa !36
  %57 = load i32, ptr %10, align 8
  %58 = lshr i32 %57, 4
  %59 = and i32 %58, 7
  %.not.i = icmp eq i32 %59, 0
  br i1 %.not.i, label %Gli_NodeComputeValue.exit, label %.lr.ph.i

.lr.ph.i:                                         ; preds = %.critedge
  %60 = getelementptr inbounds nuw i8, ptr %10, i64 28
  %wide.trip.count.i = zext nneg i32 %59 to i64
  br label %61

61:                                               ; preds = %61, %.lr.ph.i
  %indvars.iv.i = phi i64 [ 0, %.lr.ph.i ], [ %indvars.iv.next.i, %61 ]
  %.010.i = phi i32 [ 0, %.lr.ph.i ], [ %72, %61 ]
  %62 = getelementptr inbounds nuw [0 x i32], ptr %60, i64 0, i64 %indvars.iv.i
  %63 = load i32, ptr %62, align 4, !tbaa !26
  %64 = sext i32 %63 to i64
  %65 = sub nsw i64 0, %64
  %66 = getelementptr inbounds i32, ptr %10, i64 %65
  %67 = load i32, ptr %66, align 8
  %68 = lshr i32 %67, 1
  %69 = and i32 %68, 1
  %70 = trunc nuw nsw i64 %indvars.iv.i to i32
  %71 = shl nuw nsw i32 %69, %70
  %72 = or i32 %71, %.010.i
  %indvars.iv.next.i = add nuw nsw i64 %indvars.iv.i, 1
  %exitcond.not.i = icmp eq i64 %indvars.iv.next.i, %wide.trip.count.i
  br i1 %exitcond.not.i, label %Gli_NodeComputeValue.exit, label %61, !llvm.loop !37

Gli_NodeComputeValue.exit:                        ; preds = %61, %.critedge
  %.0.lcssa.i = phi i32 [ 0, %.critedge ], [ %72, %61 ]
  %73 = ashr i32 %.0.lcssa.i, 5
  %74 = sext i32 %73 to i64
  %75 = getelementptr inbounds i32, ptr %3, i64 %74
  %76 = load i32, ptr %75, align 4, !tbaa !26
  %77 = and i32 %.0.lcssa.i, 31
  %78 = lshr i32 %76, %77
  %79 = and i32 %78, 1
  %80 = shl nuw nsw i32 %79, 2
  %81 = and i32 %57, -7
  %82 = or disjoint i32 %80, %81
  %83 = shl nuw nsw i32 %79, 1
  %84 = or disjoint i32 %82, %83
  store i32 %84, ptr %10, align 8
  %85 = load i32, ptr %11, align 4, !tbaa !23
  ret i32 %85
}